target datalayout = "e-m:e-p270:32:32-p271:32:32-p272:64:64-i64:64-i128:128-f80:128-n8:16:32:64-S128"
target triple = "x86_64-pc-linux-gnu"

%struct.tsi_ssl_handshaker_factory = type { ptr, %struct.gpr_refcount }
%struct.gpr_refcount = type { i64 }
%"class.grpc_core::RefCountedPtr.2" = type { ptr }
%struct.tsi_ssl_server_handshaker_factory = type { %struct.tsi_ssl_handshaker_factory, ptr, ptr, i64, ptr, i64, %"class.grpc_core::RefCountedPtr.2" }

; Function Attrs: mustprogress uwtable
define noundef i32 @_Z51tsi_ssl_server_handshaker_factory_create_handshakerP33tsi_ssl_server_handshaker_factorymmPP14tsi_handshaker(ptr noundef %0, i64 noundef %1, i64 noundef %2, ptr noundef %3) #4 {
  %5 = alloca i32, align 4
  %6 = alloca ptr, align 8
  %7 = alloca i64, align 8
  %8 = alloca i64, align 8
  %9 = alloca ptr, align 8
  store ptr %0, ptr %6, align 8, !tbaa !103
  store i64 %1, ptr %7, align 8, !tbaa !26
  store i64 %2, ptr %8, align 8, !tbaa !26
  store ptr %3, ptr %9, align 8, !tbaa !73
  %10 = load ptr, ptr %6, align 8, !tbaa !103
  %11 = getelementptr inbounds nuw %struct.tsi_ssl_server_handshaker_factory, ptr %10, i32 0, i32 3
  %12 = load i64, ptr %11, align 8, !tbaa !105
  %13 = icmp eq i64 %12, 0
  br i1 %13, label %14, label %15

14:                                               ; preds = %4
  store i32 2, ptr %5, align 4
  br label %27

15:                                               ; preds = %4
  %16 = load ptr, ptr %6, align 8, !tbaa !103
  %17 = getelementptr inbounds nuw %struct.tsi_ssl_server_handshaker_factory, ptr %16, i32 0, i32 1
  %18 = load ptr, ptr %17, align 8, !tbaa !108
  %19 = getelementptr inbounds ptr, ptr %18, i64 0
  %20 = load ptr, ptr %19, align 8, !tbaa !83
  %21 = load i64, ptr %7, align 8, !tbaa !26
  %22 = load i64, ptr %8, align 8, !tbaa !26
  %23 = load ptr, ptr %6, align 8, !tbaa !103
  %24 = getelementptr inbounds nuw %struct.tsi_ssl_server_handshaker_factory, ptr %23, i32 0, i32 0
  %25 = load ptr, ptr %9, align 8, !tbaa !73
  %26 = call noundef i32 @_ZL25create_tsi_ssl_handshakerP10ssl_ctx_stiPKcmmP26tsi_ssl_handshaker_factoryPP14tsi_handshaker(ptr noundef %20, i32 noundef 0, ptr noundef null, i64 noundef %21, i64 noundef %22, ptr noundef %24, ptr noundef %25)
  store i32 %26, ptr %5, align 4
  br label %27

27:                                               ; preds = %15, %14
  %28 = load i32, ptr %5, align 4
  ret i32 %28
}