; Function Attrs: mustprogress uwtable
define noundef range(i32 0, 13) i32 @_Z51tsi_ssl_server_handshaker_factory_create_handshakerP33tsi_ssl_server_handshaker_factorymmPP14tsi_handshaker(ptr noundef %0, i64 noundef %1, i64 noundef %2, ptr noundef writeonly captures(none) %3) local_unnamed_addr #3 {
  %5 = getelementptr inbounds nuw i8, ptr %0, i64 32
  %6 = load i64, ptr %5, align 8, !tbaa !79
  %7 = icmp eq i64 %6, 0
  br i1 %7, label %13, label %8

8:                                                ; preds = %4
  %9 = getelementptr inbounds nuw i8, ptr %0, i64 16
  %10 = load ptr, ptr %9, align 8, !tbaa !84
  %11 = load ptr, ptr %10, align 8, !tbaa !85
  %12 = tail call fastcc noundef i32 @_ZL25create_tsi_ssl_handshakerP10ssl_ctx_stiPKcmmP26tsi_ssl_handshaker_factoryPP14tsi_handshaker(ptr noundef %11, i32 noundef 0, ptr noundef null, i64 noundef %1, i64 noundef %2, ptr noundef nonnull %0, ptr noundef %3)
  br label %13

13:                                               ; preds = %4, %8
  %.0 = phi i32 [ %12, %8 ], [ 2, %4 ]
  ret i32 %.0
}